(dp0
VWA
p1
V53
p2
sVDE
p3
V10
p4
sVDC
p5
V11
p6
sVWI
p7
V55
p8
sVWV
p9
V54
p10
sVHI
p11
V15
p12
sVFL
p13
V12
p14
sVWY
p15
V56
p16
sVNH
p17
V33
p18
sVNJ
p19
V34
p20
sVNM
p21
V35
p22
sVTX
p23
V48
p24
sVLA
p25
V22
p26
sVNC
p27
V37
p28
sVND
p29
V38
p30
sVNE
p31
V31
p32
sVTN
p33
V47
p34
sVNY
p35
V36
p36
sVPA
p37
V42
p38
sVCA
p39
V06
p40
sVNV
p41
V32
p42
sVVA
p43
V51
p44
sVCO
p45
V08
p46
sVAK
p47
V02
p48
sVAL
p49
V01
p50
sVAR
p51
V05
p52
sVVT
p53
V50
p54
sVIL
p55
V17
p56
sVGA
p57
V13
p58
sVIN
p59
V18
p60
sVIA
p61
V19
p62
sVOK
p63
V40
p64
sVAZ
p65
V04
p66
sVID
p67
V16
p68
sVCT
p69
V09
p70
sVME
p71
V23
p72
sVMD
p73
V24
p74
sVMA
p75
V25
p76
sVOH
p77
V39
p78
sVUT
p79
V49
p80
sVMO
p81
V29
p82
sVMN
p83
V27
p84
sVMI
p85
V26
p86
sVRI
p87
V44
p88
sVKS
p89
V20
p90
sVMT
p91
V30
p92
sVMS
p93
V28
p94
sVSC
p95
V45
p96
sVKY
p97
V21
p98
sVOR
p99
V41
p100
sVSD
p101
V46
p102
s.